; ModuleID = '51/279.c'
source_filename = "51/279.c"
target datalayout = "e-m:e-p270:32:32-p271:32:32-p272:64:64-i64:64-f80:128-n8:16:32:64-S128"
target triple = "x86_64-pc-linux-gnu"

@.str = private unnamed_addr constant [4 x i8] c"%d\0A\00", align 1
@.str.1 = private unnamed_addr constant [4 x i8] c"NO\0A\00", align 1
@.str.2 = private unnamed_addr constant [3 x i8] c"%c\00", align 1
@.str.3 = private unnamed_addr constant [2 x i8] c"\0A\00", align 1

; Function Attrs: noinline nounwind uwtable
define dso_local void @main() #0 {
  %1 = alloca i32, align 4
  %2 = alloca [600 x i8], align 16
  %3 = alloca i32, align 4
  %4 = alloca i32, align 4
  %5 = alloca i32, align 4
  %6 = alloca i32, align 4
  %7 = alloca i32, align 4
  %8 = alloca [600 x i32], align 16
  %9 = alloca i32, align 4
  %10 = alloca i32, align 4
  %11 = call i32 (i8*, ...) @__isoc99_scanf(i8* getelementptr inbounds ([4 x i8], [4 x i8]* @.str, i64 0, i64 0), i32* %1)
  %12 = getelementptr inbounds [600 x i8], [600 x i8]* %2, i64 0, i64 0
  %13 = call i32 (i8*, ...) bitcast (i32 (...)* @gets to i32 (i8*, ...)*)(i8* %12)
  %14 = getelementptr inbounds [600 x i8], [600 x i8]* %2, i64 0, i64 0
  %15 = call i64 @strlen(i8* %14) #3
  %16 = trunc i64 %15 to i32
  store i32 %16, i32* %3, align 4
  %17 = load i32, i32* %3, align 4
  %18 = load i32, i32* %1, align 4
  %19 = sub nsw i32 %17, %18
  %20 = add nsw i32 %19, 1
  store i32 %20, i32* %7, align 4
  store i32 0, i32* %4, align 4
  br label %21

21:                                               ; preds = %29, %0
  %22 = load i32, i32* %4, align 4
  %23 = load i32, i32* %7, align 4
  %24 = icmp slt i32 %22, %23
  br i1 %24, label %25, label %32

25:                                               ; preds = %21
  %26 = load i32, i32* %4, align 4
  %27 = sext i32 %26 to i64
  %28 = getelementptr inbounds [600 x i32], [600 x i32]* %8, i64 0, i64 %27
  store i32 0, i32* %28, align 4
  br label %29

29:                                               ; preds = %25
  %30 = load i32, i32* %4, align 4
  %31 = add nsw i32 %30, 1
  store i32 %31, i32* %4, align 4
  br label %21

32:                                               ; preds = %21
  store i32 0, i32* %4, align 4
  br label %33

33:                                               ; preds = %88, %32
  %34 = load i32, i32* %4, align 4
  %35 = load i32, i32* %7, align 4
  %36 = icmp slt i32 %34, %35
  br i1 %36, label %37, label %91

37:                                               ; preds = %33
  %38 = load i32, i32* %4, align 4
  %39 = add nsw i32 %38, 1
  store i32 %39, i32* %5, align 4
  br label %40

40:                                               ; preds = %84, %37
  %41 = load i32, i32* %5, align 4
  %42 = load i32, i32* %7, align 4
  %43 = icmp slt i32 %41, %42
  br i1 %43, label %44, label %87

44:                                               ; preds = %40
  store i32 1, i32* %9, align 4
  store i32 0, i32* %6, align 4
  br label %45

45:                                               ; preds = %67, %44
  %46 = load i32, i32* %6, align 4
  %47 = load i32, i32* %1, align 4
  %48 = icmp slt i32 %46, %47
  br i1 %48, label %49, label %70

49:                                               ; preds = %45
  %50 = load i32, i32* %5, align 4
  %51 = load i32, i32* %6, align 4
  %52 = add nsw i32 %50, %51
  %53 = sext i32 %52 to i64
  %54 = getelementptr inbounds [600 x i8], [600 x i8]* %2, i64 0, i64 %53
  %55 = load i8, i8* %54, align 1
  %56 = sext i8 %55 to i32
  %57 = load i32, i32* %4, align 4
  %58 = load i32, i32* %6, align 4
  %59 = add nsw i32 %57, %58
  %60 = sext i32 %59 to i64
  %61 = getelementptr inbounds [600 x i8], [600 x i8]* %2, i64 0, i64 %60
  %62 = load i8, i8* %61, align 1
  %63 = sext i8 %62 to i32
  %64 = icmp ne i32 %56, %63
  br i1 %64, label %65, label %66

65:                                               ; preds = %49
  store i32 0, i32* %9, align 4
  br label %70

66:                                               ; preds = %49
  br label %67

67:                                               ; preds = %66
  %68 = load i32, i32* %6, align 4
  %69 = add nsw i32 %68, 1
  store i32 %69, i32* %6, align 4
  br label %45

70:                                               ; preds = %65, %45
  %71 = load i32, i32* %9, align 4
  %72 = icmp eq i32 %71, 0
  br i1 %72, label %73, label %74

73:                                               ; preds = %70
  br label %84

74:                                               ; preds = %70
  %75 = load i32, i32* %4, align 4
  %76 = sext i32 %75 to i64
  %77 = getelementptr inbounds [600 x i32], [600 x i32]* %8, i64 0, i64 %76
  %78 = load i32, i32* %77, align 4
  %79 = add nsw i32 %78, 1
  %80 = load i32, i32* %4, align 4
  %81 = sext i32 %80 to i64
  %82 = getelementptr inbounds [600 x i32], [600 x i32]* %8, i64 0, i64 %81
  store i32 %79, i32* %82, align 4
  br label %83

83:                                               ; preds = %74
  br label %84

84:                                               ; preds = %83, %73
  %85 = load i32, i32* %5, align 4
  %86 = add nsw i32 %85, 1
  store i32 %86, i32* %5, align 4
  br label %40

87:                                               ; preds = %40
  br label %88

88:                                               ; preds = %87
  %89 = load i32, i32* %4, align 4
  %90 = add nsw i32 %89, 1
  store i32 %90, i32* %4, align 4
  br label %33

91:                                               ; preds = %33
  %92 = getelementptr inbounds [600 x i32], [600 x i32]* %8, i64 0, i64 0
  %93 = load i32, i32* %92, align 16
  store i32 %93, i32* %10, align 4
  store i32 0, i32* %4, align 4
  br label %94

94:                                               ; preds = %111, %91
  %95 = load i32, i32* %4, align 4
  %96 = load i32, i32* %7, align 4
  %97 = icmp slt i32 %95, %96
  br i1 %97, label %98, label %114

98:                                               ; preds = %94
  %99 = load i32, i32* %4, align 4
  %100 = sext i32 %99 to i64
  %101 = getelementptr inbounds [600 x i32], [600 x i32]* %8, i64 0, i64 %100
  %102 = load i32, i32* %101, align 4
  %103 = load i32, i32* %10, align 4
  %104 = icmp sgt i32 %102, %103
  br i1 %104, label %105, label %110

105:                                              ; preds = %98
  %106 = load i32, i32* %4, align 4
  %107 = sext i32 %106 to i64
  %108 = getelementptr inbounds [600 x i32], [600 x i32]* %8, i64 0, i64 %107
  %109 = load i32, i32* %108, align 4
  store i32 %109, i32* %10, align 4
  br label %110

110:                                              ; preds = %105, %98
  br label %111

111:                                              ; preds = %110
  %112 = load i32, i32* %4, align 4
  %113 = add nsw i32 %112, 1
  store i32 %113, i32* %4, align 4
  br label %94

114:                                              ; preds = %94
  %115 = load i32, i32* %10, align 4
  %116 = icmp eq i32 %115, 0
  br i1 %116, label %117, label %119

117:                                              ; preds = %114
  %118 = call i32 (i8*, ...) @printf(i8* getelementptr inbounds ([4 x i8], [4 x i8]* @.str.1, i64 0, i64 0))
  br label %159

119:                                              ; preds = %114
  %120 = load i32, i32* %10, align 4
  %121 = add nsw i32 %120, 1
  %122 = call i32 (i8*, ...) @printf(i8* getelementptr inbounds ([4 x i8], [4 x i8]* @.str, i64 0, i64 0), i32 %121)
  store i32 0, i32* %4, align 4
  br label %123

123:                                              ; preds = %155, %119
  %124 = load i32, i32* %4, align 4
  %125 = load i32, i32* %7, align 4
  %126 = icmp slt i32 %124, %125
  br i1 %126, label %127, label %158

127:                                              ; preds = %123
  %128 = load i32, i32* %4, align 4
  %129 = sext i32 %128 to i64
  %130 = getelementptr inbounds [600 x i32], [600 x i32]* %8, i64 0, i64 %129
  %131 = load i32, i32* %130, align 4
  %132 = load i32, i32* %10, align 4
  %133 = icmp eq i32 %131, %132
  br i1 %133, label %134, label %154

134:                                              ; preds = %127
  %135 = load i32, i32* %4, align 4
  store i32 %135, i32* %5, align 4
  br label %136

136:                                              ; preds = %149, %134
  %137 = load i32, i32* %5, align 4
  %138 = load i32, i32* %4, align 4
  %139 = load i32, i32* %1, align 4
  %140 = add nsw i32 %138, %139
  %141 = icmp slt i32 %137, %140
  br i1 %141, label %142, label %152

142:                                              ; preds = %136
  %143 = load i32, i32* %5, align 4
  %144 = sext i32 %143 to i64
  %145 = getelementptr inbounds [600 x i8], [600 x i8]* %2, i64 0, i64 %144
  %146 = load i8, i8* %145, align 1
  %147 = sext i8 %146 to i32
  %148 = call i32 (i8*, ...) @printf(i8* getelementptr inbounds ([3 x i8], [3 x i8]* @.str.2, i64 0, i64 0), i32 %147)
  br label %149

149:                                              ; preds = %142
  %150 = load i32, i32* %5, align 4
  %151 = add nsw i32 %150, 1
  store i32 %151, i32* %5, align 4
  br label %136

152:                                              ; preds = %136
  %153 = call i32 (i8*, ...) @printf(i8* getelementptr inbounds ([2 x i8], [2 x i8]* @.str.3, i64 0, i64 0))
  br label %154

154:                                              ; preds = %152, %127
  br label %155

155:                                              ; preds = %154
  %156 = load i32, i32* %4, align 4
  %157 = add nsw i32 %156, 1
  store i32 %157, i32* %4, align 4
  br label %123

158:                                              ; preds = %123
  br label %159

159:                                              ; preds = %158, %117
  ret void
}

declare dso_local i32 @__isoc99_scanf(i8*, ...) #1

declare dso_local i32 @gets(...) #1

; Function Attrs: nounwind readonly
declare dso_local i64 @strlen(i8*) #2

declare dso_local i32 @printf(i8*, ...) #1


!llvm.module.flags = !{!0}
!llvm.ident = !{!1}

!0 = !{i32 1, !"wchar_size", i32 4}
!1 = !{!"clang version 10.0.0-4ubuntu1 "}
